; Function Attrs: mustprogress uwtable
define void @_ZN6icu_777Package15setItemCapacityEi(ptr noundef nonnull align 8 captures(none) dereferenceable(201237) %0, i32 noundef %1) local_unnamed_addr #13 align 2 {
  %3 = getelementptr inbounds nuw i8, ptr %0, i64 1176
  %4 = load i32, ptr %3, align 8, !tbaa !44
  %.not = icmp sgt i32 %1, %4
  br i1 %.not, label %5, label %24

5:                                                ; preds = %2
  %6 = sext i32 %1 to i64
  %7 = mul nsw i64 %6, 24
  %8 = tail call noalias ptr @uprv_malloc_77(i64 noundef %7) #27
  %9 = getelementptr inbounds nuw i8, ptr %0, i64 1184
  %10 = load ptr, ptr %9, align 8, !tbaa !30
  %11 = icmp eq ptr %8, null
  br i1 %11, label %12, label %15

12:                                               ; preds = %5
  %13 = load ptr, ptr @stderr, align 8, !tbaa !36
  %14 = tail call i32 (ptr, ptr, ...) @fprintf(ptr noundef %13, ptr noundef nonnull @.str.35, i64 noundef %7, i32 noundef %1) #25
  tail call void @exit(i32 noundef 7) #26
  unreachable

15:                                               ; preds = %5
  %.not12 = icmp eq ptr %10, null
  br i1 %.not12, label %23, label %16

16:                                               ; preds = %15
  %17 = getelementptr inbounds nuw i8, ptr %0, i64 1172
  %18 = load i32, ptr %17, align 4, !tbaa !29
  %19 = icmp sgt i32 %18, 0
  br i1 %19, label %20, label %23

20:                                               ; preds = %16
  %21 = zext nneg i32 %18 to i64
  %22 = mul nuw nsw i64 %21, 24
  tail call void @llvm.memcpy.p0.p0.i64(ptr nonnull align 8 %8, ptr nonnull align 8 %10, i64 %22, i1 false)
  br label %23

23:                                               ; preds = %20, %16, %15
  store i32 %1, ptr %3, align 8, !tbaa !44
  store ptr %8, ptr %9, align 8, !tbaa !30
  tail call void @uprv_free_77(ptr noundef %10)
  br label %24

24:                                               ; preds = %2, %23
  ret void
}